; Function Attrs: nounwind sspstrong uwtable
define internal noundef ptr @sysopen_func(ptr noundef readonly captures(none) %0) #0 {
  %2 = load i64, ptr %0, align 8, !tbaa !391
  %3 = inttoptr i64 %2 to ptr
  %4 = load i64, ptr %3, align 8, !tbaa !25, !noalias !396
  %5 = and i64 %4, 8192
  %.not.i.i = icmp eq i64 %5, 0
  %6 = getelementptr inbounds nuw i8, ptr %3, i64 24
  br i1 %.not.i.i, label %RSTRING_PTR.exit, label %7

7:                                                ; preds = %1
  %.sroa.2.0.copyload.i = load ptr, ptr %6, align 8
  br label %RSTRING_PTR.exit

RSTRING_PTR.exit:                                 ; preds = %1, %7
  %.sroa.2.0.i = phi ptr [ %.sroa.2.0.copyload.i, %7 ], [ %6, %1 ]
  %8 = getelementptr inbounds nuw i8, ptr %0, i64 8
  %9 = load i32, ptr %8, align 8, !tbaa !393
  %10 = getelementptr inbounds nuw i8, ptr %0, i64 12
  %11 = load i32, ptr %10, align 4, !tbaa !394
  %12 = tail call i32 @rb_cloexec_open(ptr noundef %.sroa.2.0.i, i32 noundef %9, i32 noundef %11)
  %13 = sext i32 %12 to i64
  %14 = inttoptr i64 %13 to ptr
  ret ptr %14
}